target datalayout = "e-m:e-p270:32:32-p271:32:32-p272:64:64-i64:64-i128:128-f80:128-n8:16:32:64-S128"
target triple = "x86_64-pc-linux-gnu"

%struct.object_id = type { [32 x i8], i32 }
%struct.repository = type { ptr, ptr, ptr, ptr, ptr, %struct.strmap, %struct.strmap, %struct.repo_path_cache, ptr, ptr, ptr, ptr, %struct.repo_settings, ptr, ptr, ptr, ptr, ptr, ptr, i32, i32, i32, ptr, ptr, i32, i32, i8 }
%struct.strmap = type { %struct.hashmap, ptr, i8 }
%struct.hashmap = type { ptr, ptr, ptr, i32, i32, i32, i32, i8 }
%struct.repo_path_cache = type { ptr, ptr, ptr, ptr, ptr, ptr, ptr }
%struct.repo_settings = type { i32, i32, i32, i32, i32, i32, i32, i32, i32, i32, i32, i32, ptr, i32, i32, i32, i32, i32, i32, i32, i64, i64, i64 }
%struct.index_state = type { ptr, i32, i32, i32, i32, ptr, ptr, ptr, %struct.cache_time, i8, i32, %struct.hashmap, %struct.hashmap, %struct.object_id, ptr, ptr, ptr, ptr, ptr, ptr, ptr }
%struct.cache_time = type { i32, i32 }
%struct.tree_desc = type { ptr, ptr, %struct.name_entry, i32, i32 }
%struct.name_entry = type { %struct.object_id, ptr, i32, i32 }
%struct.unpack_trees_options = type { i32, i32, i32, i32, i32, i32, i32, i32, i32, i32, i32, i32, i32, i32, i32, i32, i32, ptr, ptr, ptr, ptr, i32, ptr, ptr, ptr, ptr, %struct.checkout_metadata, %struct.unpack_trees_options_internal }
%struct.checkout_metadata = type { ptr, %struct.object_id, %struct.object_id }
%struct.unpack_trees_options_internal = type { i32, i32, i32, i32, i32, [12 x ptr], %struct.strvec, [12 x %struct.string_list], %struct.index_state, ptr, ptr }
%struct.strvec = type { ptr, i64, i64 }
%struct.string_list = type { ptr, i64, i64, i8, ptr }

@.str.31 = private unnamed_addr constant [5 x i8] c"HEAD\00", align 1
@the_repository = external global ptr, align 8
@.str.36 = private unnamed_addr constant [16 x i8] c"builtin/reset.c\00", align 1
@.str.57 = private unnamed_addr constant [1 x i8] zeroinitializer, align 1
@git_gettext_enabled = external global i32, align 4
@.str.60 = private unnamed_addr constant [41 x i8] c"invalid reset_type passed to reset_index\00", align 1
@.str.61 = private unnamed_addr constant [30 x i8] c"You do not have a valid HEAD.\00", align 1
@.str.62 = private unnamed_addr constant [29 x i8] c"Failed to find tree of HEAD.\00", align 1
@.str.63 = private unnamed_addr constant [27 x i8] c"Failed to find tree of %s.\00", align 1
@.str.64 = private unnamed_addr constant [25 x i8] c"unable to read tree (%s)\00", align 1

; Function Attrs: inlinehint nounwind uwtable
define internal i32 @const_error() #4 {
  ret i32 -1
}

; Function Attrs: inlinehint nounwind uwtable
define internal ptr @_(ptr noundef %0) #4 {
  %2 = alloca ptr, align 8
  %3 = alloca ptr, align 8
  store ptr %0, ptr %3, align 8, !tbaa !11
  %4 = load ptr, ptr %3, align 8, !tbaa !11
  %5 = load i8, ptr %4, align 1, !tbaa !65
  %6 = icmp ne i8 %5, 0
  br i1 %6, label %8, label %7

7:                                                ; preds = %1
  store ptr @.str.57, ptr %2, align 8
  br label %16

8:                                                ; preds = %1
  %9 = load i32, ptr @git_gettext_enabled, align 4, !tbaa !4
  %10 = icmp ne i32 %9, 0
  br i1 %10, label %13, label %11

11:                                               ; preds = %8
  %12 = load ptr, ptr %3, align 8, !tbaa !11
  store ptr %12, ptr %2, align 8
  br label %16

13:                                               ; preds = %8
  %14 = load ptr, ptr %3, align 8, !tbaa !11
  %15 = call ptr @dcgettext(ptr noundef null, ptr noundef %14, i32 noundef 5) #9
  store ptr %15, ptr %2, align 8
  br label %16

16:                                               ; preds = %13, %11, %7
  %17 = load ptr, ptr %2, align 8
  ret ptr %17
}

; Function Attrs: nounwind uwtable
define internal i32 @reset_index(ptr noundef %0, ptr noundef %1, i32 noundef %2, i32 noundef %3) #0 {
  %5 = alloca i32, align 4
  %6 = alloca ptr, align 8
  %7 = alloca ptr, align 8
  %8 = alloca i32, align 4
  %9 = alloca i32, align 4
  %10 = alloca i32, align 4
  %11 = alloca i32, align 4
  %12 = alloca [2 x %struct.tree_desc], align 16
  %13 = alloca ptr, align 8
  %14 = alloca %struct.unpack_trees_options, align 8
  %15 = alloca i32, align 4
  %16 = alloca %struct.object_id, align 4
  %17 = alloca i32, align 4
  store ptr %0, ptr %6, align 8, !tbaa !11
  store ptr %1, ptr %7, align 8, !tbaa !66
  store i32 %2, ptr %8, align 4, !tbaa !4
  store i32 %3, ptr %9, align 4, !tbaa !4
  call void @llvm.lifetime.start.p0(i64 4, ptr %10) #9
  call void @llvm.lifetime.start.p0(i64 4, ptr %11) #9
  store i32 0, ptr %11, align 4, !tbaa !4
  call void @llvm.lifetime.start.p0(i64 160, ptr %12) #9
  call void @llvm.lifetime.start.p0(i64 8, ptr %13) #9
  call void @llvm.lifetime.start.p0(i64 1120, ptr %14) #9
  call void @llvm.lifetime.start.p0(i64 4, ptr %15) #9
  store i32 -1, ptr %15, align 4, !tbaa !4
  call void @llvm.memset.p0.i64(ptr align 8 %14, i8 0, i64 1120, i1 false)
  %18 = getelementptr inbounds nuw %struct.unpack_trees_options, ptr %14, i32 0, i32 21
  store i32 1, ptr %18, align 8, !tbaa !84
  %19 = load ptr, ptr @the_repository, align 8, !tbaa !13
  %20 = getelementptr inbounds nuw %struct.repository, ptr %19, i32 0, i32 15
  %21 = load ptr, ptr %20, align 8, !tbaa !58
  %22 = getelementptr inbounds nuw %struct.unpack_trees_options, ptr %14, i32 0, i32 25
  store ptr %21, ptr %22, align 8, !tbaa !101
  %23 = load ptr, ptr @the_repository, align 8, !tbaa !13
  %24 = getelementptr inbounds nuw %struct.repository, ptr %23, i32 0, i32 15
  %25 = load ptr, ptr %24, align 8, !tbaa !58
  %26 = getelementptr inbounds nuw %struct.unpack_trees_options, ptr %14, i32 0, i32 24
  store ptr %25, ptr %26, align 8, !tbaa !102
  %27 = getelementptr inbounds nuw %struct.unpack_trees_options, ptr %14, i32 0, i32 20
  store ptr @oneway_merge, ptr %27, align 8, !tbaa !103
  %28 = getelementptr inbounds nuw %struct.unpack_trees_options, ptr %14, i32 0, i32 0
  store i32 1, ptr %28, align 8, !tbaa !104
  %29 = getelementptr inbounds nuw %struct.unpack_trees_options, ptr %14, i32 0, i32 26
  %30 = load ptr, ptr %6, align 8, !tbaa !11
  %31 = load ptr, ptr %7, align 8, !tbaa !66
  call void @init_checkout_metadata(ptr noundef %29, ptr noundef %30, ptr noundef %31, ptr noundef null)
  %32 = load i32, ptr %9, align 4, !tbaa !4
  %33 = icmp ne i32 %32, 0
  br i1 %33, label %36, label %34

34:                                               ; preds = %4
  %35 = getelementptr inbounds nuw %struct.unpack_trees_options, ptr %14, i32 0, i32 6
  store i32 1, ptr %35, align 8, !tbaa !105
  br label %36

36:                                               ; preds = %34, %4
  %37 = load i32, ptr %8, align 4, !tbaa !4
  switch i32 %37, label %48 [
    i32 4, label %38
    i32 3, label %38
    i32 2, label %41
    i32 0, label %45
  ]

38:                                               ; preds = %36, %36
  %39 = getelementptr inbounds nuw %struct.unpack_trees_options, ptr %14, i32 0, i32 1
  store i32 1, ptr %39, align 4, !tbaa !106
  %40 = getelementptr inbounds nuw %struct.unpack_trees_options, ptr %14, i32 0, i32 2
  store i32 0, ptr %40, align 8, !tbaa !107
  br label %49

41:                                               ; preds = %36
  %42 = getelementptr inbounds nuw %struct.unpack_trees_options, ptr %14, i32 0, i32 1
  store i32 1, ptr %42, align 4, !tbaa !106
  %43 = getelementptr inbounds nuw %struct.unpack_trees_options, ptr %14, i32 0, i32 16
  store i32 3, ptr %43, align 8, !tbaa !108
  %44 = getelementptr inbounds nuw %struct.unpack_trees_options, ptr %14, i32 0, i32 15
  store i32 1, ptr %44, align 4, !tbaa !109
  br label %49

45:                                               ; preds = %36
  %46 = getelementptr inbounds nuw %struct.unpack_trees_options, ptr %14, i32 0, i32 16
  store i32 2, ptr %46, align 8, !tbaa !108
  %47 = getelementptr inbounds nuw %struct.unpack_trees_options, ptr %14, i32 0, i32 15
  store i32 1, ptr %47, align 4, !tbaa !109
  br label %49

48:                                               ; preds = %36
  call void (ptr, i32, ptr, ...) @BUG_fl(ptr noundef @.str.36, i32 noundef 96, ptr noundef @.str.60) #10
  unreachable

49:                                               ; preds = %45, %41, %38
  %50 = load ptr, ptr @the_repository, align 8, !tbaa !13
  %51 = call i32 @repo_read_index_unmerged(ptr noundef %50)
  %52 = load i32, ptr %8, align 4, !tbaa !4
  %53 = icmp eq i32 %52, 4
  br i1 %53, label %54, label %81

54:                                               ; preds = %49
  call void @llvm.lifetime.start.p0(i64 36, ptr %16) #9
  %55 = load ptr, ptr @the_repository, align 8, !tbaa !13
  %56 = call i32 @repo_get_oid(ptr noundef %55, ptr noundef @.str.31, ptr noundef %16)
  %57 = icmp ne i32 %56, 0
  br i1 %57, label %58, label %62

58:                                               ; preds = %54
  %59 = call ptr @_(ptr noundef @.str.61)
  %60 = call i32 (ptr, ...) @error(ptr noundef %59)
  %61 = call i32 @const_error()
  store i32 %61, ptr %5, align 4
  store i32 1, ptr %17, align 4
  br label %78

62:                                               ; preds = %54
  %63 = load ptr, ptr @the_repository, align 8, !tbaa !13
  %64 = getelementptr inbounds [2 x %struct.tree_desc], ptr %12, i64 0, i64 0
  %65 = load i32, ptr %11, align 4, !tbaa !4
  %66 = sext i32 %65 to i64
  %67 = getelementptr inbounds %struct.tree_desc, ptr %64, i64 %66
  %68 = call ptr @fill_tree_descriptor(ptr noundef %63, ptr noundef %67, ptr noundef %16)
  %69 = icmp ne ptr %68, null
  br i1 %69, label %74, label %70

70:                                               ; preds = %62
  %71 = call ptr @_(ptr noundef @.str.62)
  %72 = call i32 (ptr, ...) @error(ptr noundef %71)
  %73 = call i32 @const_error()
  store i32 %73, ptr %5, align 4
  store i32 1, ptr %17, align 4
  br label %78

74:                                               ; preds = %62
  %75 = load i32, ptr %11, align 4, !tbaa !4
  %76 = add nsw i32 %75, 1
  store i32 %76, ptr %11, align 4, !tbaa !4
  %77 = getelementptr inbounds nuw %struct.unpack_trees_options, ptr %14, i32 0, i32 20
  store ptr @twoway_merge, ptr %77, align 8, !tbaa !103
  store i32 0, ptr %17, align 4
  br label %78

78:                                               ; preds = %74, %70, %58
  call void @llvm.lifetime.end.p0(i64 36, ptr %16) #9
  %79 = load i32, ptr %17, align 4
  switch i32 %79, label %144 [
    i32 0, label %80
  ]

80:                                               ; preds = %78
  br label %81

81:                                               ; preds = %80, %49
  %82 = load ptr, ptr @the_repository, align 8, !tbaa !13
  %83 = getelementptr inbounds [2 x %struct.tree_desc], ptr %12, i64 0, i64 0
  %84 = load i32, ptr %11, align 4, !tbaa !4
  %85 = sext i32 %84 to i64
  %86 = getelementptr inbounds %struct.tree_desc, ptr %83, i64 %85
  %87 = load ptr, ptr %7, align 8, !tbaa !66
  %88 = call ptr @fill_tree_descriptor(ptr noundef %82, ptr noundef %86, ptr noundef %87)
  %89 = icmp ne ptr %88, null
  br i1 %89, label %96, label %90

90:                                               ; preds = %81
  %91 = call ptr @_(ptr noundef @.str.63)
  %92 = load ptr, ptr %7, align 8, !tbaa !66
  %93 = call ptr @oid_to_hex(ptr noundef %92)
  %94 = call i32 (ptr, ...) @error(ptr noundef %91, ptr noundef %93)
  %95 = call i32 @const_error()
  br label %128

96:                                               ; preds = %81
  %97 = load i32, ptr %11, align 4, !tbaa !4
  %98 = add nsw i32 %97, 1
  store i32 %98, ptr %11, align 4, !tbaa !4
  %99 = load i32, ptr %11, align 4, !tbaa !4
  %100 = getelementptr inbounds [2 x %struct.tree_desc], ptr %12, i64 0, i64 0
  %101 = call i32 @unpack_trees(i32 noundef %99, ptr noundef %100, ptr noundef %14)
  %102 = icmp ne i32 %101, 0
  br i1 %102, label %103, label %104

103:                                              ; preds = %96
  br label %128

104:                                              ; preds = %96
  %105 = load i32, ptr %8, align 4, !tbaa !4
  %106 = icmp eq i32 %105, 0
  br i1 %106, label %110, label %107

107:                                              ; preds = %104
  %108 = load i32, ptr %8, align 4, !tbaa !4
  %109 = icmp eq i32 %108, 2
  br i1 %109, label %110, label %127

110:                                              ; preds = %107, %104
  %111 = load ptr, ptr %7, align 8, !tbaa !66
  %112 = call ptr @parse_tree_indirect(ptr noundef %111)
  store ptr %112, ptr %13, align 8, !tbaa !55
  %113 = load ptr, ptr %13, align 8, !tbaa !55
  %114 = icmp ne ptr %113, null
  br i1 %114, label %121, label %115

115:                                              ; preds = %110
  %116 = call ptr @_(ptr noundef @.str.64)
  %117 = load ptr, ptr %7, align 8, !tbaa !66
  %118 = call ptr @oid_to_hex(ptr noundef %117)
  %119 = call i32 (ptr, ...) @error(ptr noundef %116, ptr noundef %118)
  %120 = call i32 @const_error()
  br label %128

121:                                              ; preds = %110
  %122 = load ptr, ptr @the_repository, align 8, !tbaa !13
  %123 = load ptr, ptr @the_repository, align 8, !tbaa !13
  %124 = getelementptr inbounds nuw %struct.repository, ptr %123, i32 0, i32 15
  %125 = load ptr, ptr %124, align 8, !tbaa !58
  %126 = load ptr, ptr %13, align 8, !tbaa !55
  call void @prime_cache_tree(ptr noundef %122, ptr noundef %125, ptr noundef %126)
  br label %127

127:                                              ; preds = %121, %107
  store i32 0, ptr %15, align 4, !tbaa !4
  br label %128

128:                                              ; preds = %127, %115, %103, %90
  store i32 0, ptr %10, align 4, !tbaa !4
  br label %129

129:                                              ; preds = %139, %128
  %130 = load i32, ptr %10, align 4, !tbaa !4
  %131 = load i32, ptr %11, align 4, !tbaa !4
  %132 = icmp slt i32 %130, %131
  br i1 %132, label %133, label %142

133:                                              ; preds = %129
  %134 = load i32, ptr %10, align 4, !tbaa !4
  %135 = sext i32 %134 to i64
  %136 = getelementptr inbounds [2 x %struct.tree_desc], ptr %12, i64 0, i64 %135
  %137 = getelementptr inbounds nuw %struct.tree_desc, ptr %136, i32 0, i32 1
  %138 = load ptr, ptr %137, align 8, !tbaa !110
  call void @free(ptr noundef %138) #9
  br label %139

139:                                              ; preds = %133
  %140 = load i32, ptr %10, align 4, !tbaa !4
  %141 = add nsw i32 %140, 1
  store i32 %141, ptr %10, align 4, !tbaa !4
  br label %129, !llvm.loop !113

142:                                              ; preds = %129
  %143 = load i32, ptr %15, align 4, !tbaa !4
  store i32 %143, ptr %5, align 4
  store i32 1, ptr %17, align 4
  br label %144

144:                                              ; preds = %142, %78
  call void @llvm.lifetime.end.p0(i64 4, ptr %15) #9
  call void @llvm.lifetime.end.p0(i64 1120, ptr %14) #9
  call void @llvm.lifetime.end.p0(i64 8, ptr %13) #9
  call void @llvm.lifetime.end.p0(i64 160, ptr %12) #9
  call void @llvm.lifetime.end.p0(i64 4, ptr %11) #9
  call void @llvm.lifetime.end.p0(i64 4, ptr %10) #9
  %145 = load i32, ptr %5, align 4
  ret i32 %145
}