; Function Attrs: nounwind uwtable
define internal fastcc range(i32 -1, 1) i32 @reset_index(ptr noundef %0, ptr noundef nonnull %1, i32 noundef %2, i32 noundef %3) unnamed_addr #0 {
  %5 = alloca [2 x %struct.tree_desc], align 16
  %6 = alloca %struct.unpack_trees_options, align 8
  %7 = alloca %struct.object_id, align 4
  call void @llvm.lifetime.start.p0(i64 160, ptr nonnull %5) #13
  call void @llvm.lifetime.start.p0(i64 1120, ptr nonnull %6) #13
  call void @llvm.memset.p0.i64(ptr noundef nonnull align 8 dereferenceable(1120) %6, i8 0, i64 1120, i1 false)
  %8 = getelementptr inbounds nuw i8, ptr %6, i64 104
  store i32 1, ptr %8, align 8, !tbaa !73
  %9 = load ptr, ptr @the_repository, align 8, !tbaa !22
  %10 = getelementptr inbounds nuw i8, ptr %9, i64 384
  %11 = load ptr, ptr %10, align 8, !tbaa !51
  %12 = getelementptr inbounds nuw i8, ptr %6, i64 136
  store ptr %11, ptr %12, align 8, !tbaa !91
  %13 = getelementptr inbounds nuw i8, ptr %6, i64 128
  store ptr %11, ptr %13, align 8, !tbaa !92
  %14 = getelementptr inbounds nuw i8, ptr %6, i64 96
  store ptr @oneway_merge, ptr %14, align 8, !tbaa !93
  store i32 1, ptr %6, align 8, !tbaa !94
  %15 = getelementptr inbounds nuw i8, ptr %6, i64 144
  call void @init_checkout_metadata(ptr noundef nonnull %15, ptr noundef %0, ptr noundef nonnull %1, ptr noundef null) #13
  %.not = icmp eq i32 %3, 0
  br i1 %.not, label %16, label %18

16:                                               ; preds = %4
  %17 = getelementptr inbounds nuw i8, ptr %6, i64 24
  store i32 1, ptr %17, align 8, !tbaa !95
  br label %18

18:                                               ; preds = %16, %4
  switch i32 %2, label %21 [
    i32 4, label %26
    i32 3, label %26
    i32 2, label %19
    i32 0, label %.thread
  ]

19:                                               ; preds = %18
  %20 = getelementptr inbounds nuw i8, ptr %6, i64 4
  store i32 1, ptr %20, align 4, !tbaa !96
  br label %.thread

21:                                               ; preds = %18
  call void (ptr, i32, ptr, ...) @BUG_fl(ptr noundef nonnull @.str.36, i32 noundef 96, ptr noundef nonnull @.str.60) #14
  unreachable

.thread:                                          ; preds = %18, %19
  %.sink = phi i32 [ 3, %19 ], [ 2, %18 ]
  %22 = getelementptr inbounds nuw i8, ptr %6, i64 64
  store i32 %.sink, ptr %22, align 8, !tbaa !97
  %23 = getelementptr inbounds nuw i8, ptr %6, i64 60
  store i32 1, ptr %23, align 4, !tbaa !98
  %24 = load ptr, ptr @the_repository, align 8, !tbaa !22
  %25 = call i32 @repo_read_index_unmerged(ptr noundef %24) #13
  br label %45

26:                                               ; preds = %18, %18
  %27 = getelementptr inbounds nuw i8, ptr %6, i64 4
  store i32 1, ptr %27, align 4, !tbaa !96
  %28 = getelementptr inbounds nuw i8, ptr %6, i64 8
  store i32 0, ptr %28, align 8, !tbaa !99
  %29 = load ptr, ptr @the_repository, align 8, !tbaa !22
  %30 = call i32 @repo_read_index_unmerged(ptr noundef %29) #13
  %31 = icmp eq i32 %2, 4
  br i1 %31, label %32, label %45

32:                                               ; preds = %26
  call void @llvm.lifetime.start.p0(i64 36, ptr nonnull %7) #13
  %33 = load ptr, ptr @the_repository, align 8, !tbaa !22
  %34 = call i32 @repo_get_oid(ptr noundef %33, ptr noundef nonnull @.str.31, ptr noundef nonnull %7) #13
  %.not31 = icmp eq i32 %34, 0
  br i1 %.not31, label %37, label %35

35:                                               ; preds = %32
  %36 = load i32, ptr @git_gettext_enabled, align 4, !tbaa !4
  %.not4.i = icmp eq i32 %36, 0
  br i1 %.not4.i, label %.thread46, label %.thread46.sink.split

37:                                               ; preds = %32
  %38 = load ptr, ptr @the_repository, align 8, !tbaa !22
  %39 = call ptr @fill_tree_descriptor(ptr noundef %38, ptr noundef nonnull %5, ptr noundef nonnull %7) #13
  %.not32 = icmp eq ptr %39, null
  br i1 %.not32, label %40, label %44

40:                                               ; preds = %37
  %41 = load i32, ptr @git_gettext_enabled, align 4, !tbaa !4
  %.not4.i36 = icmp eq i32 %41, 0
  br i1 %.not4.i36, label %.thread46, label %.thread46.sink.split

.thread46.sink.split:                             ; preds = %40, %35
  %.str.62.sink = phi ptr [ @.str.61, %35 ], [ @.str.62, %40 ]
  %42 = call ptr @dcgettext(ptr noundef null, ptr noundef nonnull %.str.62.sink, i32 noundef 5) #13
  br label %.thread46

.thread46:                                        ; preds = %.thread46.sink.split, %40, %35
  %.0.i.sink = phi ptr [ @.str.61, %35 ], [ @.str.62, %40 ], [ %42, %.thread46.sink.split ]
  %43 = call i32 (ptr, ...) @error(ptr noundef %.0.i.sink) #13
  call void @llvm.lifetime.end.p0(i64 36, ptr nonnull %7) #13
  br label %.loopexit

44:                                               ; preds = %37
  store ptr @twoway_merge, ptr %14, align 8, !tbaa !93
  call void @llvm.lifetime.end.p0(i64 36, ptr nonnull %7) #13
  br label %45

45:                                               ; preds = %44, %.thread, %26
  %46 = phi i1 [ true, %44 ], [ false, %26 ], [ false, %.thread ]
  %.027 = phi i32 [ 1, %44 ], [ 0, %26 ], [ 0, %.thread ]
  %47 = load ptr, ptr @the_repository, align 8, !tbaa !22
  %48 = zext nneg i32 %.027 to i64
  %49 = getelementptr inbounds nuw %struct.tree_desc, ptr %5, i64 %48
  %50 = call ptr @fill_tree_descriptor(ptr noundef %47, ptr noundef nonnull %49, ptr noundef nonnull %1) #13
  %.not33 = icmp eq ptr %50, null
  br i1 %.not33, label %51, label %55

51:                                               ; preds = %45
  %52 = load i32, ptr @git_gettext_enabled, align 4, !tbaa !4
  %.not4.i39 = icmp eq i32 %52, 0
  br i1 %.not4.i39, label %72, label %53

53:                                               ; preds = %51
  %54 = call ptr @dcgettext(ptr noundef null, ptr noundef nonnull @.str.63, i32 noundef 5) #13
  br label %72

55:                                               ; preds = %45
  %56 = add nuw nsw i32 %.027, 1
  %57 = call i32 @unpack_trees(i32 noundef %56, ptr noundef nonnull %5, ptr noundef nonnull %6) #13
  %.not34 = icmp eq i32 %57, 0
  br i1 %.not34, label %58, label %.lr.ph.preheader

58:                                               ; preds = %55
  %59 = and i32 %2, -3
  %or.cond = icmp eq i32 %59, 0
  br i1 %or.cond, label %60, label %.lr.ph.preheader

60:                                               ; preds = %58
  %61 = call ptr @parse_tree_indirect(ptr noundef nonnull %1) #13
  %.not35 = icmp eq ptr %61, null
  br i1 %.not35, label %62, label %68

62:                                               ; preds = %60
  %63 = load i32, ptr @git_gettext_enabled, align 4, !tbaa !4
  %.not4.i42 = icmp eq i32 %63, 0
  br i1 %.not4.i42, label %_.exit44, label %64

64:                                               ; preds = %62
  %65 = call ptr @dcgettext(ptr noundef null, ptr noundef nonnull @.str.64, i32 noundef 5) #13
  br label %_.exit44

_.exit44:                                         ; preds = %62, %64
  %.0.i43 = phi ptr [ %65, %64 ], [ @.str.64, %62 ]
  %66 = call ptr @oid_to_hex(ptr noundef nonnull %1) #13
  %67 = call i32 (ptr, ...) @error(ptr noundef %.0.i43, ptr noundef %66) #13
  br label %.lr.ph.preheader

68:                                               ; preds = %60
  %69 = load ptr, ptr @the_repository, align 8, !tbaa !22
  %70 = getelementptr inbounds nuw i8, ptr %69, i64 384
  %71 = load ptr, ptr %70, align 8, !tbaa !51
  call void @prime_cache_tree(ptr noundef %69, ptr noundef %71, ptr noundef nonnull %61) #13
  br label %.lr.ph.preheader

72:                                               ; preds = %53, %51
  %.0.i40 = phi ptr [ %54, %53 ], [ @.str.63, %51 ]
  %73 = call ptr @oid_to_hex(ptr noundef nonnull %1) #13
  %74 = call i32 (ptr, ...) @error(ptr noundef %.0.i40, ptr noundef %73) #13
  br i1 %46, label %.lr.ph.preheader, label %.loopexit

.lr.ph.preheader:                                 ; preds = %68, %58, %_.exit44, %55, %72
  %.02555 = phi i32 [ -1, %72 ], [ 0, %68 ], [ 0, %58 ], [ -1, %_.exit44 ], [ -1, %55 ]
  %.254 = phi i32 [ 1, %72 ], [ %56, %68 ], [ %56, %58 ], [ %56, %_.exit44 ], [ %56, %55 ]
  %wide.trip.count = zext nneg i32 %.254 to i64
  br label %.lr.ph

.lr.ph:                                           ; preds = %.lr.ph.preheader, %.lr.ph
  %indvars.iv = phi i64 [ 0, %.lr.ph.preheader ], [ %indvars.iv.next, %.lr.ph ]
  %75 = getelementptr inbounds nuw [2 x %struct.tree_desc], ptr %5, i64 0, i64 %indvars.iv, i32 1
  %76 = load ptr, ptr %75, align 8, !tbaa !100
  call void @free(ptr noundef %76) #13
  %indvars.iv.next = add nuw nsw i64 %indvars.iv, 1
  %exitcond.not = icmp eq i64 %indvars.iv.next, %wide.trip.count
  br i1 %exitcond.not, label %.loopexit, label %.lr.ph, !llvm.loop !103

.loopexit:                                        ; preds = %.lr.ph, %72, %.thread46
  %.1 = phi i32 [ -1, %.thread46 ], [ -1, %72 ], [ %.02555, %.lr.ph ]
  call void @llvm.lifetime.end.p0(i64 1120, ptr nonnull %6) #13
  call void @llvm.lifetime.end.p0(i64 160, ptr nonnull %5) #13
  ret i32 %.1
}